; ModuleID = 'source-C-CXX/44/1162.c'
source_filename = "source-C-CXX/44/1162.c"
target datalayout = "e-m:e-p270:32:32-p271:32:32-p272:64:64-i64:64-f80:128-n8:16:32:64-S128"
target triple = "x86_64-pc-linux-gnu"

@.str = private unnamed_addr constant [5 x i8] c"%s%s\00", align 1
@.str.1 = private unnamed_addr constant [3 x i8] c"%d\00", align 1

; Function Attrs: nofree nounwind sspstrong uwtable
define dso_local i32 @main() local_unnamed_addr #0 {
  %1 = alloca [100 x i8], align 16
  %2 = alloca [100 x i8], align 16
  %3 = getelementptr inbounds [100 x i8], [100 x i8]* %1, i64 0, i64 0
  call void @llvm.lifetime.start.p0i8(i64 100, i8* nonnull %3) #3
  %4 = getelementptr inbounds [100 x i8], [100 x i8]* %2, i64 0, i64 0
  call void @llvm.lifetime.start.p0i8(i64 100, i8* nonnull %4) #3
  %5 = call i32 (i8*, ...) @__isoc99_scanf(i8* getelementptr inbounds ([5 x i8], [5 x i8]* @.str, i64 0, i64 0), i8* nonnull %3, i8* nonnull %4)
  %6 = load i8, i8* %4, align 16, !tbaa !5
  %7 = icmp eq i8 %6, 0
  br i1 %7, label %38, label %8

8:                                                ; preds = %0
  %9 = getelementptr inbounds [100 x i8], [100 x i8]* %1, i64 0, i64 -1
  %10 = load i8, i8* %9, align 1, !tbaa !5
  %11 = icmp eq i8 %10, 0
  br i1 %11, label %38, label %12

12:                                               ; preds = %8
  %13 = getelementptr inbounds [100 x i8], [100 x i8]* %1, i64 0, i64 0
  %14 = load i8, i8* %13, align 16, !tbaa !5
  %15 = icmp eq i8 %14, 0
  br label %16

16:                                               ; preds = %12, %33
  %17 = phi i64 [ %34, %33 ], [ 0, %12 ]
  br i1 %15, label %30, label %22

18:                                               ; preds = %22
  %19 = getelementptr inbounds [100 x i8], [100 x i8]* %1, i64 0, i64 %29
  %20 = load i8, i8* %19, align 1, !tbaa !5
  %21 = icmp eq i8 %20, 0
  br i1 %21, label %30, label %22, !llvm.loop !8

22:                                               ; preds = %16, %18
  %23 = phi i8 [ %20, %18 ], [ %14, %16 ]
  %24 = phi i64 [ %29, %18 ], [ 0, %16 ]
  %25 = add nuw nsw i64 %24, %17
  %26 = getelementptr inbounds [100 x i8], [100 x i8]* %2, i64 0, i64 %25
  %27 = load i8, i8* %26, align 1, !tbaa !5
  %28 = icmp eq i8 %23, %27
  %29 = add nuw i64 %24, 1
  br i1 %28, label %18, label %33

30:                                               ; preds = %16, %18
  %31 = trunc i64 %17 to i32
  %32 = call i32 (i8*, ...) @printf(i8* nonnull dereferenceable(1) getelementptr inbounds ([3 x i8], [3 x i8]* @.str.1, i64 0, i64 0), i32 %31)
  br label %38

33:                                               ; preds = %22
  %34 = add nuw i64 %17, 1
  %35 = getelementptr inbounds [100 x i8], [100 x i8]* %2, i64 0, i64 %34
  %36 = load i8, i8* %35, align 1, !tbaa !5
  %37 = icmp eq i8 %36, 0
  br i1 %37, label %38, label %16, !llvm.loop !10

38:                                               ; preds = %33, %8, %0, %30
  call void @llvm.lifetime.end.p0i8(i64 100, i8* nonnull %4) #3
  call void @llvm.lifetime.end.p0i8(i64 100, i8* nonnull %3) #3
  ret i32 0
}

; Function Attrs: argmemonly mustprogress nofree nosync nounwind willreturn
declare void @llvm.lifetime.start.p0i8(i64 immarg, i8* nocapture) #1

; Function Attrs: nofree nounwind
declare noundef i32 @__isoc99_scanf(i8* nocapture noundef readonly, ...) local_unnamed_addr #2

; Function Attrs: nofree nounwind
declare noundef i32 @printf(i8* nocapture noundef readonly, ...) local_unnamed_addr #2

; Function Attrs: argmemonly mustprogress nofree nosync nounwind willreturn
declare void @llvm.lifetime.end.p0i8(i64 immarg, i8* nocapture) #1


!llvm.module.flags = !{!0, !1, !2, !3}
!llvm.ident = !{!4}

!0 = !{i32 1, !"wchar_size", i32 4}
!1 = !{i32 7, !"PIC Level", i32 2}
!2 = !{i32 7, !"PIE Level", i32 2}
!3 = !{i32 7, !"uwtable", i32 1}
!4 = !{!"clang version 13.0.0"}
!5 = !{!6, !6, i64 0}
!6 = !{!"omnipotent char", !7, i64 0}
!7 = !{!"Simple C/C++ TBAA"}
!8 = distinct !{!8, !9}
!9 = !{!"llvm.loop.mustprogress"}
!10 = distinct !{!10, !9}
